Certificate:
    Data:
        Version: 3 (0x2)
        Serial Number:
            5f:06:bd:3e:ef:fe:36:3f:3f:ae:20:2e:04:29:1a:7d:a5:3f:1c:b1
        Signature Algorithm: sha256WithRSAEncryption
        Issuer: C = CO, ST = Antioquia, L = Envigado, O = Perficient, OU = Outsourcing, CN = perficient, emailAddress = arnold.jimenezv@perficient.com
        Validity
            Not Before: Oct 31 13:43:55 2023 GMT
            Not After : Nov 30 13:43:55 2023 GMT
        Subject: C = CO, ST = Antioquia, L = Envigado, O = Perficient, OU = Outsourcing, CN = perficient, emailAddress = arnold.jimenezv@perficient.com
        Subject Public Key Info:
            Public Key Algorithm: rsaEncryption
                Public-Key: (2048 bit)
                Modulus:
                    00:e7:ee:73:b1:e3:3d:6b:34:44:60:83:2f:06:08:
                    fd:fb:50:a3:de:2e:5a:07:0c:eb:39:6c:4f:02:b5:
                    9f:6c:d2:56:8a:98:39:6c:91:9a:67:5d:f6:f2:fd:
                    ed:24:ce:00:59:4f:24:be:d5:96:ac:c0:f4:ab:ee:
                    5c:43:de:c3:7b:a2:e8:c6:52:bd:8b:39:0f:50:f8:
                    ab:1f:70:c3:53:36:cd:69:06:ac:b4:2a:b3:9c:1e:
                    63:d8:39:05:e7:8b:08:ec:4f:99:5f:3d:59:67:21:
                    a7:d6:d9:ed:58:fd:53:39:0b:d3:8b:1d:f0:ae:3f:
                    ad:4b:cd:01:fc:55:fc:7d:83:9c:95:b7:49:c5:1e:
                    cf:dc:a9:ee:77:1a:52:81:b7:f8:5d:5a:f5:8d:59:
                    75:cf:62:c3:f0:8d:bc:a1:dc:4c:c8:c1:ae:ec:27:
                    a1:a0:52:7c:24:cf:24:36:56:ef:4a:f1:59:db:cd:
                    a0:9c:95:6d:b9:42:c4:b0:90:cd:2a:4c:a4:2a:81:
                    77:61:ba:f5:ab:0a:dc:ae:7c:f1:94:8f:1a:7e:7f:
                    ba:4f:10:fc:07:52:4c:1b:30:c7:ad:f4:a6:31:ca:
                    4b:78:d7:40:cd:06:b7:f0:d0:e1:b2:30:3d:62:82:
                    85:4d:82:60:0c:a5:16:b8:a9:47:d6:17:fe:ed:c9:
                    aa:1f
                Exponent: 65537 (0x10001)
        X509v3 extensions:
            X509v3 Subject Key Identifier: 
                6E:32:94:56:55:F8:5A:FD:22:2B:C5:27:14:54:76:85:1F:8E:18:29
            X509v3 Authority Key Identifier: 
                6E:32:94:56:55:F8:5A:FD:22:2B:C5:27:14:54:76:85:1F:8E:18:29
            X509v3 Basic Constraints: critical
                CA:TRUE
    Signature Algorithm: sha256WithRSAEncryption
    Signature Value:
        c4:0c:d2:96:02:39:0a:98:c1:80:92:53:dd:2c:1b:73:1b:dc:
        6c:1b:5a:99:0a:f9:89:1c:13:75:f4:7b:23:56:14:61:7e:88:
        b1:08:5e:7e:9b:c5:58:d9:d1:2e:2a:86:d1:78:05:de:77:f4:
        82:77:6a:09:78:86:b8:59:0a:a2:b9:f9:1a:ce:45:65:96:fc:
        55:49:25:f5:18:38:8d:ea:dc:fa:37:cf:e1:03:1d:bb:8b:97:
        d8:e1:28:1a:57:27:0a:23:67:87:16:6b:e3:ff:61:cf:94:54:
        c9:7e:73:54:4d:fd:e1:b7:4e:a4:7d:b5:8e:a9:b8:af:32:34:
        19:88:5b:fe:6f:a3:5e:60:d9:08:4c:9e:3e:22:2a:7c:d7:71:
        c6:e4:26:0c:93:d2:eb:c9:2c:67:13:8e:82:cd:4f:fa:07:94:
        18:8b:6a:8a:e5:28:c5:f5:37:02:f5:f3:aa:d2:7f:18:4e:23:
        98:fe:00:ff:86:c4:7d:ea:6f:9e:08:2e:9c:ac:e9:f7:69:f0:
        28:aa:fb:6a:29:94:fa:ed:bc:58:97:79:9a:46:91:80:64:6c:
        9d:c7:71:0f:61:f0:7e:87:e8:43:d4:a3:d2:b8:d6:0b:15:13:
        5a:bc:bf:90:a5:44:65:20:04:c3:a9:ce:74:5e:21:08:1f:ec:
        03:e1:d3:5f
-----BEGIN CERTIFICATE-----
MIIEKTCCAxGgAwIBAgIUXwa9Pu/+Nj8/riAuBCkafaU/HLEwDQYJKoZIhvcNAQEL
BQAwgaMxCzAJBgNVBAYTAkNPMRIwEAYDVQQIDAlBbnRpb3F1aWExETAPBgNVBAcM
CEVudmlnYWRvMRMwEQYDVQQKDApQZXJmaWNpZW50MRQwEgYDVQQLDAtPdXRzb3Vy
Y2luZzETMBEGA1UEAwwKcGVyZmljaWVudDEtMCsGCSqGSIb3DQEJARYeYXJub2xk
LmppbWVuZXp2QHBlcmZpY2llbnQuY29tMB4XDTIzMTAzMTEzNDM1NVoXDTIzMTEz
MDEzNDM1NVowgaMxCzAJBgNVBAYTAkNPMRIwEAYDVQQIDAlBbnRpb3F1aWExETAP
BgNVBAcMCEVudmlnYWRvMRMwEQYDVQQKDApQZXJmaWNpZW50MRQwEgYDVQQLDAtP
dXRzb3VyY2luZzETMBEGA1UEAwwKcGVyZmljaWVudDEtMCsGCSqGSIb3DQEJARYe
YXJub2xkLmppbWVuZXp2QHBlcmZpY2llbnQuY29tMIIBIjANBgkqhkiG9w0BAQEF
AAOCAQ8AMIIBCgKCAQEA5+5zseM9azREYIMvBgj9+1Cj3i5aBwzrOWxPArWfbNJW
ipg5bJGaZ1328v3tJM4AWU8kvtWWrMD0q+5cQ97De6LoxlK9izkPUPirH3DDUzbN
aQastCqznB5j2DkF54sI7E+ZXz1ZZyGn1tntWP1TOQvTix3wrj+tS80B/FX8fYOc
lbdJxR7P3KnudxpSgbf4XVr1jVl1z2LD8I28odxMyMGu7CehoFJ8JM8kNlbvSvFZ
282gnJVtuULEsJDNKkykKoF3Ybr1qwrcrnzxlI8afn+6TxD8B1JMGzDHrfSmMcpL
eNdAzQa38NDhsjA9YoKFTYJgDKUWuKlH1hf+7cmqHwIDAQABo1MwUTAdBgNVHQ4E
FgQUbjKUVlX4Wv0iK8UnFFR2hR+OGCkwHwYDVR0jBBgwFoAUbjKUVlX4Wv0iK8Un
FFR2hR+OGCkwDwYDVR0TAQH/BAUwAwEB/zANBgkqhkiG9w0BAQsFAAOCAQEAxAzS
lgI5CpjBgJJT3SwbcxvcbBtamQr5iRwTdfR7I1YUYX6IsQhefpvFWNnRLiqG0XgF
3nf0gndqCXiGuFkKorn5Gs5FZZb8VUkl9Rg4jerc+jfP4QMdu4uX2OEoGlcnCiNn
hxZr4/9hz5RUyX5zVE394bdOpH21jqm4rzI0GYhb/m+jXmDZCEyePiIqfNdxxuQm
DJPS68ksZxOOgs1P+geUGItqiuUoxfU3AvXzqtJ/GE4jmP4A/4bEfepvnggunKzp
92nwKKr7aimU+u28WJd5mkaRgGRsncdxD2HwfofoQ9Sj0rjWCxUTWry/kKVEZSAE
w6nOdF4hCB/sA+HTXw==
-----END CERTIFICATE-----
